target datalayout = "e-m:e-p270:32:32-p271:32:32-p272:64:64-i64:64-i128:128-f80:128-n8:16:32:64-S128"
target triple = "x86_64-pc-linux-gnu"

%"struct.vcpkg::StringLiteral" = type { %"struct.vcpkg::ZStringView" }
%"struct.vcpkg::ZStringView" = type { %"struct.vcpkg::StringView" }
%"struct.vcpkg::StringView" = type { ptr, i64 }
%"class.std::__cxx11::basic_string" = type { %"struct.std::__cxx11::basic_string<char>::_Alloc_hider", i64, %union.anon }
%"struct.std::__cxx11::basic_string<char>::_Alloc_hider" = type { ptr }
%union.anon = type { i64, [8 x i8] }
%"struct.(anonymous namespace)::NuGetTool" = type <{ %"struct.vcpkg::Command", %"class.std::__cxx11::basic_string", i8, i8, [6 x i8] }>
%"struct.vcpkg::Command" = type { %"class.std::__cxx11::basic_string" }

@.str.163 = private unnamed_addr constant [20 x i8] c"-ForceEnglishOutput\00", align 1
@.str.164 = private unnamed_addr constant [11 x i8] c"-Verbosity\00", align 1
@.str.165 = private unnamed_addr constant [9 x i8] c"detailed\00", align 1
@.str.166 = private unnamed_addr constant [16 x i8] c"-NonInteractive\00", align 1

; Function Attrs: mustprogress nounwind uwtable
define linkonce_odr dso_local void @_ZN5vcpkg7CommandD2Ev(ptr noundef nonnull align 8 dereferenceable(32) %0) unnamed_addr #1 comdat align 2 {
  %2 = alloca ptr, align 8
  store ptr %0, ptr %2, align 8
  %3 = load ptr, ptr %2, align 8
  %4 = getelementptr inbounds %"struct.vcpkg::Command", ptr %3, i32 0, i32 0
  call void @_ZNSt7__cxx1112basic_stringIcSt11char_traitsIcESaIcEED1Ev(ptr noundef nonnull align 8 dereferenceable(32) %4) #8
  ret void
}

; Function Attrs: mustprogress nounwind uwtable
define linkonce_odr dso_local void @_ZN5vcpkg10StringViewC2EPKc(ptr noundef nonnull align 8 dereferenceable(16) %0, ptr noundef %1) unnamed_addr #1 comdat align 2 {
  %3 = alloca ptr, align 8
  %4 = alloca ptr, align 8
  store ptr %0, ptr %3, align 8
  store ptr %1, ptr %4, align 8
  %5 = load ptr, ptr %3, align 8
  %6 = getelementptr inbounds %"struct.vcpkg::StringView", ptr %5, i32 0, i32 0
  %7 = load ptr, ptr %4, align 8
  store ptr %7, ptr %6, align 8
  %8 = getelementptr inbounds %"struct.vcpkg::StringView", ptr %5, i32 0, i32 1
  %9 = load ptr, ptr %4, align 8
  %10 = call i64 @strlen(ptr noundef %9) #19
  store i64 %10, ptr %8, align 8
  ret void
}

; Function Attrs: mustprogress uwtable
define linkonce_odr dso_local void @_ZN5vcpkg7CommandC2ERKS0_(ptr noundef nonnull align 8 dereferenceable(32) %0, ptr noundef nonnull align 8 dereferenceable(32) %1) unnamed_addr #0 comdat align 2 {
  %3 = alloca ptr, align 8
  %4 = alloca ptr, align 8
  store ptr %0, ptr %3, align 8
  store ptr %1, ptr %4, align 8
  %5 = load ptr, ptr %3, align 8
  %6 = getelementptr inbounds %"struct.vcpkg::Command", ptr %5, i32 0, i32 0
  %7 = load ptr, ptr %4, align 8
  %8 = getelementptr inbounds %"struct.vcpkg::Command", ptr %7, i32 0, i32 0
  call void @_ZNSt7__cxx1112basic_stringIcSt11char_traitsIcESaIcEEC1ERKS4_(ptr noundef nonnull align 8 dereferenceable(32) %6, ptr noundef nonnull align 8 dereferenceable(32) %8)
  ret void
}

; Function Attrs: mustprogress uwtable
define internal void @_ZNK12_GLOBAL__N_19NuGetTool10subcommandEN5vcpkg13StringLiteralE(ptr dead_on_unwind noalias writable sret(%"struct.vcpkg::Command") align 8 %0, ptr noundef nonnull align 8 dereferenceable(66) %1, ptr %2, i64 %3) #0 align 2 personality ptr @__gxx_personality_v0 {
  %5 = alloca ptr, align 8
  %6 = alloca %"struct.vcpkg::StringLiteral", align 8
  %7 = alloca ptr, align 8
  %8 = alloca i1, align 1
  %9 = alloca %"struct.vcpkg::StringView", align 8
  %10 = alloca ptr, align 8
  %11 = alloca i32, align 4
  %12 = alloca %"struct.vcpkg::StringView", align 8
  %13 = alloca %"struct.vcpkg::StringView", align 8
  %14 = alloca %"struct.vcpkg::StringView", align 8
  %15 = alloca %"struct.vcpkg::StringView", align 8
  store ptr %0, ptr %5, align 8
  %16 = getelementptr inbounds { ptr, i64 }, ptr %6, i32 0, i32 0
  store ptr %2, ptr %16, align 8
  %17 = getelementptr inbounds { ptr, i64 }, ptr %6, i32 0, i32 1
  store i64 %3, ptr %17, align 8
  store ptr %1, ptr %7, align 8
  %18 = load ptr, ptr %7, align 8
  store i1 false, ptr %8, align 1
  %19 = getelementptr inbounds %"struct.(anonymous namespace)::NuGetTool", ptr %18, i32 0, i32 0
  call void @_ZN5vcpkg7CommandC2ERKS0_(ptr noundef nonnull align 8 dereferenceable(32) %0, ptr noundef nonnull align 8 dereferenceable(32) %19)
  call void @llvm.memcpy.p0.p0.i64(ptr align 8 %9, ptr align 8 %6, i64 16, i1 false)
  %20 = getelementptr inbounds { ptr, i64 }, ptr %9, i32 0, i32 0
  %21 = load ptr, ptr %20, align 8
  %22 = getelementptr inbounds { ptr, i64 }, ptr %9, i32 0, i32 1
  %23 = load i64, ptr %22, align 8
  %24 = invoke noundef nonnull align 8 dereferenceable(32) ptr @_ZNR5vcpkg7Command10string_argENS_10StringViewE(ptr noundef nonnull align 8 dereferenceable(32) %0, ptr %21, i64 %23)
          to label %25 unwind label %54

25:                                               ; preds = %4
  call void @_ZN5vcpkg10StringViewC2EPKc(ptr noundef nonnull align 8 dereferenceable(16) %12, ptr noundef @.str.163) #8
  %26 = getelementptr inbounds { ptr, i64 }, ptr %12, i32 0, i32 0
  %27 = load ptr, ptr %26, align 8
  %28 = getelementptr inbounds { ptr, i64 }, ptr %12, i32 0, i32 1
  %29 = load i64, ptr %28, align 8
  %30 = invoke noundef nonnull align 8 dereferenceable(32) ptr @_ZNR5vcpkg7Command10string_argENS_10StringViewE(ptr noundef nonnull align 8 dereferenceable(32) %24, ptr %27, i64 %29)
          to label %31 unwind label %54

31:                                               ; preds = %25
  call void @_ZN5vcpkg10StringViewC2EPKc(ptr noundef nonnull align 8 dereferenceable(16) %13, ptr noundef @.str.164) #8
  %32 = getelementptr inbounds { ptr, i64 }, ptr %13, i32 0, i32 0
  %33 = load ptr, ptr %32, align 8
  %34 = getelementptr inbounds { ptr, i64 }, ptr %13, i32 0, i32 1
  %35 = load i64, ptr %34, align 8
  %36 = invoke noundef nonnull align 8 dereferenceable(32) ptr @_ZNR5vcpkg7Command10string_argENS_10StringViewE(ptr noundef nonnull align 8 dereferenceable(32) %30, ptr %33, i64 %35)
          to label %37 unwind label %54

37:                                               ; preds = %31
  call void @_ZN5vcpkg10StringViewC2EPKc(ptr noundef nonnull align 8 dereferenceable(16) %14, ptr noundef @.str.165) #8
  %38 = getelementptr inbounds { ptr, i64 }, ptr %14, i32 0, i32 0
  %39 = load ptr, ptr %38, align 8
  %40 = getelementptr inbounds { ptr, i64 }, ptr %14, i32 0, i32 1
  %41 = load i64, ptr %40, align 8
  %42 = invoke noundef nonnull align 8 dereferenceable(32) ptr @_ZNR5vcpkg7Command10string_argENS_10StringViewE(ptr noundef nonnull align 8 dereferenceable(32) %36, ptr %39, i64 %41)
          to label %43 unwind label %54

43:                                               ; preds = %37
  %44 = getelementptr inbounds %"struct.(anonymous namespace)::NuGetTool", ptr %18, i32 0, i32 2
  %45 = load i8, ptr %44, align 8
  %46 = trunc i8 %45 to i1
  br i1 %46, label %58, label %47

47:                                               ; preds = %43
  call void @_ZN5vcpkg10StringViewC2EPKc(ptr noundef nonnull align 8 dereferenceable(16) %15, ptr noundef @.str.166) #8
  %48 = getelementptr inbounds { ptr, i64 }, ptr %15, i32 0, i32 0
  %49 = load ptr, ptr %48, align 8
  %50 = getelementptr inbounds { ptr, i64 }, ptr %15, i32 0, i32 1
  %51 = load i64, ptr %50, align 8
  %52 = invoke noundef nonnull align 8 dereferenceable(32) ptr @_ZNR5vcpkg7Command10string_argENS_10StringViewE(ptr noundef nonnull align 8 dereferenceable(32) %0, ptr %49, i64 %51)
          to label %53 unwind label %54

53:                                               ; preds = %47
  br label %58

54:                                               ; preds = %47, %37, %31, %25, %4
  %55 = landingpad { ptr, i32 }
          cleanup
  %56 = extractvalue { ptr, i32 } %55, 0
  store ptr %56, ptr %10, align 8
  %57 = extractvalue { ptr, i32 } %55, 1
  store i32 %57, ptr %11, align 4
  call void @_ZN5vcpkg7CommandD2Ev(ptr noundef nonnull align 8 dereferenceable(32) %0) #8
  br label %62

58:                                               ; preds = %53, %43
  store i1 true, ptr %8, align 1
  %59 = load i1, ptr %8, align 1
  br i1 %59, label %61, label %60

60:                                               ; preds = %58
  call void @_ZN5vcpkg7CommandD2Ev(ptr noundef nonnull align 8 dereferenceable(32) %0) #8
  br label %61

61:                                               ; preds = %60, %58
  ret void

62:                                               ; preds = %54
  %63 = load ptr, ptr %10, align 8
  %64 = load i32, ptr %11, align 4
  %65 = insertvalue { ptr, i32 } poison, ptr %63, 0
  %66 = insertvalue { ptr, i32 } %65, i32 %64, 1
  resume { ptr, i32 } %66
}