; Function Attrs: mustprogress uwtable
define internal fastcc void @_ZNK12_GLOBAL__N_19NuGetTool10subcommandEN5vcpkg13StringLiteralE(ptr dead_on_unwind noalias nonnull writable align 8 %0, ptr noundef nonnull align 8 dereferenceable(66) %1, ptr %2, i64 %3) unnamed_addr #0 align 2 personality ptr @__gxx_personality_v0 {
  tail call void @_ZNSt7__cxx1112basic_stringIcSt11char_traitsIcESaIcEEC1ERKS4_(ptr noundef nonnull align 8 dereferenceable(32) %0, ptr noundef nonnull align 8 dereferenceable(32) %1)
  %5 = invoke noundef nonnull align 8 dereferenceable(32) ptr @_ZNR5vcpkg7Command10string_argENS_10StringViewE(ptr noundef nonnull align 8 dereferenceable(32) %0, ptr %2, i64 %3)
          to label %6 unwind label %18

6:                                                ; preds = %4
  %7 = invoke noundef nonnull align 8 dereferenceable(32) ptr @_ZNR5vcpkg7Command10string_argENS_10StringViewE(ptr noundef nonnull align 8 dereferenceable(32) %5, ptr nonnull @.str.163, i64 19)
          to label %8 unwind label %18

8:                                                ; preds = %6
  %9 = invoke noundef nonnull align 8 dereferenceable(32) ptr @_ZNR5vcpkg7Command10string_argENS_10StringViewE(ptr noundef nonnull align 8 dereferenceable(32) %7, ptr nonnull @.str.164, i64 10)
          to label %10 unwind label %18

10:                                               ; preds = %8
  %11 = invoke noundef nonnull align 8 dereferenceable(32) ptr @_ZNR5vcpkg7Command10string_argENS_10StringViewE(ptr noundef nonnull align 8 dereferenceable(32) %9, ptr nonnull @.str.165, i64 8)
          to label %12 unwind label %18

12:                                               ; preds = %10
  %13 = getelementptr inbounds i8, ptr %1, i64 64
  %14 = load i8, ptr %13, align 8
  %15 = and i8 %14, 1
  %.not = icmp eq i8 %15, 0
  br i1 %.not, label %16, label %20

16:                                               ; preds = %12
  %17 = invoke noundef nonnull align 8 dereferenceable(32) ptr @_ZNR5vcpkg7Command10string_argENS_10StringViewE(ptr noundef nonnull align 8 dereferenceable(32) %0, ptr nonnull @.str.166, i64 15)
          to label %20 unwind label %18

18:                                               ; preds = %16, %10, %8, %6, %4
  %19 = landingpad { ptr, i32 }
          cleanup
  tail call void @_ZNSt7__cxx1112basic_stringIcSt11char_traitsIcESaIcEED1Ev(ptr noundef nonnull align 8 dereferenceable(32) %0) #24
  resume { ptr, i32 } %19

20:                                               ; preds = %12, %16
  ret void
}